target datalayout = "e-m:e-p270:32:32-p271:32:32-p272:64:64-i64:64-i128:128-f80:128-n8:16:32:64-S128"
target triple = "x86_64-pc-linux-gnu"

%struct.Aig_Obj_t_ = type { %union.anon, ptr, ptr, i64, i32, i32, %union.anon.0 }
%union.anon = type { ptr }
%union.anon.0 = type { ptr }
%struct.Aig_Man_t_ = type { ptr, ptr, ptr, ptr, ptr, ptr, ptr, %struct.Aig_Obj_t_, i32, i32, i32, i32, i32, i32, [7 x i32], i32, ptr, i32, ptr, i32, ptr, i32, i32, i32, ptr, i32, i32, i32, i32, i32, ptr, ptr, i32, ptr, ptr, i32, ptr, ptr, i32, i32, i32, ptr, ptr, ptr, ptr, ptr, ptr, ptr, ptr, ptr, ptr, ptr, ptr, ptr, ptr, i32, ptr, ptr, ptr, ptr, i32, i64, i64, i64, ptr, ptr }
%struct.Vec_Ptr_t_ = type { i32, i32, ptr }
%struct.Abc_Obj_t_ = type { ptr, ptr, i32, i32, %struct.Vec_Int_t_, %struct.Vec_Int_t_, %union.anon.3, %union.anon.4 }
%struct.Vec_Int_t_ = type { i32, i32, ptr }
%union.anon.3 = type { ptr }
%union.anon.4 = type { ptr }
%struct.Abc_Ntk_t_ = type { i32, i32, ptr, ptr, ptr, ptr, ptr, ptr, ptr, ptr, ptr, ptr, ptr, [11 x i32], i32, i32, i32, i32, ptr, i32, ptr, ptr, i32, i32, i32, double, i32, %struct.Vec_Int_t_, ptr, ptr, ptr, ptr, ptr, float, i32, ptr, ptr, ptr, ptr, ptr, ptr, ptr, ptr, ptr, ptr, ptr, ptr, ptr, ptr, ptr, ptr, ptr, ptr, ptr, ptr, ptr }
%struct.Mfs_Man_t_ = type { ptr, ptr, ptr, ptr, i32, ptr, ptr, ptr, ptr, ptr, ptr, ptr, ptr, i32, i32, i32, i32, ptr, ptr, i32, i32, i32, ptr, ptr, ptr, ptr, ptr, ptr, ptr, i32, i32, ptr, i32, i32, i32, [128 x i32], i32, i32, i32, i32, i32, i32, i32, i32, i32, i32, i32, i32, i32, i32, double, i32, i32, i32, i32, float, float, i64, i64, i64, i64, i64, i64, i64, i64 }

; Function Attrs: nounwind uwtable
define internal void @Vec_IntGrow(ptr noundef %0, i32 noundef %1) #0 {
  %3 = alloca ptr, align 8
  %4 = alloca i32, align 4
  store ptr %0, ptr %3, align 8
  store i32 %1, ptr %4, align 4
  %5 = load ptr, ptr %3, align 8
  %6 = getelementptr inbounds %struct.Vec_Int_t_, ptr %5, i32 0, i32 0
  %7 = load i32, ptr %6, align 8
  %8 = load i32, ptr %4, align 4
  %9 = icmp sge i32 %7, %8
  br i1 %9, label %10, label %11

10:                                               ; preds = %2
  br label %36

11:                                               ; preds = %2
  %12 = load ptr, ptr %3, align 8
  %13 = getelementptr inbounds %struct.Vec_Int_t_, ptr %12, i32 0, i32 2
  %14 = load ptr, ptr %13, align 8
  %15 = icmp ne ptr %14, null
  br i1 %15, label %16, label %24

16:                                               ; preds = %11
  %17 = load ptr, ptr %3, align 8
  %18 = getelementptr inbounds %struct.Vec_Int_t_, ptr %17, i32 0, i32 2
  %19 = load ptr, ptr %18, align 8
  %20 = load i32, ptr %4, align 4
  %21 = sext i32 %20 to i64
  %22 = mul i64 4, %21
  %23 = call ptr @realloc(ptr noundef %19, i64 noundef %22) #4
  br label %29

24:                                               ; preds = %11
  %25 = load i32, ptr %4, align 4
  %26 = sext i32 %25 to i64
  %27 = mul i64 4, %26
  %28 = call noalias ptr @malloc(i64 noundef %27) #5
  br label %29

29:                                               ; preds = %24, %16
  %30 = phi ptr [ %23, %16 ], [ %28, %24 ]
  %31 = load ptr, ptr %3, align 8
  %32 = getelementptr inbounds %struct.Vec_Int_t_, ptr %31, i32 0, i32 2
  store ptr %30, ptr %32, align 8
  %33 = load i32, ptr %4, align 4
  %34 = load ptr, ptr %3, align 8
  %35 = getelementptr inbounds %struct.Vec_Int_t_, ptr %34, i32 0, i32 0
  store i32 %33, ptr %35, align 8
  br label %36

36:                                               ; preds = %29, %10
  ret void
}

; Function Attrs: nounwind uwtable
define internal ptr @Aig_Not(ptr noundef %0) #0 {
  %2 = alloca ptr, align 8
  store ptr %0, ptr %2, align 8
  %3 = load ptr, ptr %2, align 8
  %4 = ptrtoint ptr %3 to i64
  %5 = xor i64 %4, 1
  %6 = inttoptr i64 %5 to ptr
  ret ptr %6
}

; Function Attrs: nounwind uwtable
define internal void @Vec_IntFill(ptr noundef %0, i32 noundef %1, i32 noundef %2) #0 {
  %4 = alloca ptr, align 8
  %5 = alloca i32, align 4
  %6 = alloca i32, align 4
  %7 = alloca i32, align 4
  store ptr %0, ptr %4, align 8
  store i32 %1, ptr %5, align 4
  store i32 %2, ptr %6, align 4
  %8 = load ptr, ptr %4, align 8
  %9 = load i32, ptr %5, align 4
  call void @Vec_IntGrow(ptr noundef %8, i32 noundef %9)
  store i32 0, ptr %7, align 4
  br label %10

10:                                               ; preds = %22, %3
  %11 = load i32, ptr %7, align 4
  %12 = load i32, ptr %5, align 4
  %13 = icmp slt i32 %11, %12
  br i1 %13, label %14, label %25

14:                                               ; preds = %10
  %15 = load i32, ptr %6, align 4
  %16 = load ptr, ptr %4, align 8
  %17 = getelementptr inbounds %struct.Vec_Int_t_, ptr %16, i32 0, i32 2
  %18 = load ptr, ptr %17, align 8
  %19 = load i32, ptr %7, align 4
  %20 = sext i32 %19 to i64
  %21 = getelementptr inbounds i32, ptr %18, i64 %20
  store i32 %15, ptr %21, align 4
  br label %22

22:                                               ; preds = %14
  %23 = load i32, ptr %7, align 4
  %24 = add nsw i32 %23, 1
  store i32 %24, ptr %7, align 4
  br label %10, !llvm.loop !19

25:                                               ; preds = %10
  %26 = load i32, ptr %5, align 4
  %27 = load ptr, ptr %4, align 8
  %28 = getelementptr inbounds %struct.Vec_Int_t_, ptr %27, i32 0, i32 1
  store i32 %26, ptr %28, align 4
  ret void
}

; Function Attrs: nounwind uwtable
define internal i32 @Abc_NtkObjNumMax(ptr noundef %0) #0 {
  %2 = alloca ptr, align 8
  store ptr %0, ptr %2, align 8
  %3 = load ptr, ptr %2, align 8
  %4 = getelementptr inbounds %struct.Abc_Ntk_t_, ptr %3, i32 0, i32 5
  %5 = load ptr, ptr %4, align 8
  %6 = call i32 @Vec_PtrSize(ptr noundef %5)
  ret i32 %6
}

; Function Attrs: nounwind uwtable
define internal ptr @Aig_ManConst0(ptr noundef %0) #0 {
  %2 = alloca ptr, align 8
  store ptr %0, ptr %2, align 8
  %3 = load ptr, ptr %2, align 8
  %4 = getelementptr inbounds %struct.Aig_Man_t_, ptr %3, i32 0, i32 6
  %5 = load ptr, ptr %4, align 8
  %6 = call ptr @Aig_Not(ptr noundef %5)
  ret ptr %6
}

; Function Attrs: nounwind uwtable
define internal ptr @Abc_ObjNot(ptr noundef %0) #0 {
  %2 = alloca ptr, align 8
  store ptr %0, ptr %2, align 8
  %3 = load ptr, ptr %2, align 8
  %4 = ptrtoint ptr %3 to i64
  %5 = xor i64 %4, 1
  %6 = inttoptr i64 %5 to ptr
  ret ptr %6
}

; Function Attrs: nounwind uwtable
define internal void @Abc_NtkIncrementTravId(ptr noundef %0) #0 {
  %2 = alloca ptr, align 8
  store ptr %0, ptr %2, align 8
  %3 = load ptr, ptr %2, align 8
  %4 = getelementptr inbounds %struct.Abc_Ntk_t_, ptr %3, i32 0, i32 27
  %5 = getelementptr inbounds %struct.Vec_Int_t_, ptr %4, i32 0, i32 2
  %6 = load ptr, ptr %5, align 8
  %7 = icmp ne ptr %6, null
  br i1 %7, label %14, label %8

8:                                                ; preds = %1
  %9 = load ptr, ptr %2, align 8
  %10 = getelementptr inbounds %struct.Abc_Ntk_t_, ptr %9, i32 0, i32 27
  %11 = load ptr, ptr %2, align 8
  %12 = call i32 @Abc_NtkObjNumMax(ptr noundef %11)
  %13 = add nsw i32 %12, 500
  call void @Vec_IntFill(ptr noundef %10, i32 noundef %13, i32 noundef 0)
  br label %14

14:                                               ; preds = %8, %1
  %15 = load ptr, ptr %2, align 8
  %16 = getelementptr inbounds %struct.Abc_Ntk_t_, ptr %15, i32 0, i32 26
  %17 = load i32, ptr %16, align 8
  %18 = add nsw i32 %17, 1
  store i32 %18, ptr %16, align 8
  ret void
}

; Function Attrs: nounwind uwtable
define internal ptr @Vec_PtrEntry(ptr noundef %0, i32 noundef %1) #0 {
  %3 = alloca ptr, align 8
  %4 = alloca i32, align 4
  store ptr %0, ptr %3, align 8
  store i32 %1, ptr %4, align 4
  %5 = load ptr, ptr %3, align 8
  %6 = getelementptr inbounds %struct.Vec_Ptr_t_, ptr %5, i32 0, i32 2
  %7 = load ptr, ptr %6, align 8
  %8 = load i32, ptr %4, align 4
  %9 = sext i32 %8 to i64
  %10 = getelementptr inbounds ptr, ptr %7, i64 %9
  %11 = load ptr, ptr %10, align 8
  ret ptr %11
}

; Function Attrs: nounwind uwtable
define internal i32 @Vec_PtrSize(ptr noundef %0) #0 {
  %2 = alloca ptr, align 8
  store ptr %0, ptr %2, align 8
  %3 = load ptr, ptr %2, align 8
  %4 = getelementptr inbounds %struct.Vec_Ptr_t_, ptr %3, i32 0, i32 1
  %5 = load i32, ptr %4, align 4
  ret i32 %5
}

; Function Attrs: nounwind uwtable
define ptr @Abc_NtkConstructAig_rec(ptr noundef %0, ptr noundef %1, ptr noundef %2) #0 {
  %4 = alloca ptr, align 8
  %5 = alloca ptr, align 8
  %6 = alloca ptr, align 8
  %7 = alloca ptr, align 8
  %8 = alloca ptr, align 8
  %9 = alloca ptr, align 8
  %10 = alloca i32, align 4
  store ptr %0, ptr %4, align 8
  store ptr %1, ptr %5, align 8
  store ptr %2, ptr %6, align 8
  store i32 0, ptr %10, align 4
  br label %11

11:                                               ; preds = %33, %3
  %12 = load i32, ptr %10, align 4
  %13 = load ptr, ptr %4, align 8
  %14 = getelementptr inbounds %struct.Mfs_Man_t_, ptr %13, i32 0, i32 6
  %15 = load ptr, ptr %14, align 8
  %16 = call i32 @Vec_PtrSize(ptr noundef %15)
  %17 = icmp slt i32 %12, %16
  br i1 %17, label %18, label %24

18:                                               ; preds = %11
  %19 = load ptr, ptr %4, align 8
  %20 = getelementptr inbounds %struct.Mfs_Man_t_, ptr %19, i32 0, i32 6
  %21 = load ptr, ptr %20, align 8
  %22 = load i32, ptr %10, align 4
  %23 = call ptr @Vec_PtrEntry(ptr noundef %21, i32 noundef %22)
  store ptr %23, ptr %9, align 8
  br label %24

24:                                               ; preds = %18, %11
  %25 = phi i1 [ false, %11 ], [ true, %18 ]
  br i1 %25, label %26, label %36

26:                                               ; preds = %24
  %27 = load ptr, ptr %6, align 8
  %28 = call ptr @Aig_ObjCreateCi(ptr noundef %27)
  %29 = load ptr, ptr %9, align 8
  %30 = getelementptr inbounds %struct.Abc_Obj_t_, ptr %29, i32 0, i32 1
  store ptr %28, ptr %30, align 8
  %31 = load ptr, ptr %9, align 8
  %32 = getelementptr inbounds %struct.Abc_Obj_t_, ptr %31, i32 0, i32 7
  store ptr %28, ptr %32, align 8
  br label %33

33:                                               ; preds = %26
  %34 = load i32, ptr %10, align 4
  %35 = add nsw i32 %34, 1
  store i32 %35, ptr %10, align 4
  br label %11, !llvm.loop !8

36:                                               ; preds = %24
  %37 = load ptr, ptr %5, align 8
  %38 = getelementptr inbounds %struct.Abc_Obj_t_, ptr %37, i32 0, i32 0
  %39 = load ptr, ptr %38, align 8
  call void @Abc_NtkIncrementTravId(ptr noundef %39)
  store i32 0, ptr %10, align 4
  br label %40

40:                                               ; preds = %69, %36
  %41 = load i32, ptr %10, align 4
  %42 = load ptr, ptr %4, align 8
  %43 = getelementptr inbounds %struct.Mfs_Man_t_, ptr %42, i32 0, i32 7
  %44 = load ptr, ptr %43, align 8
  %45 = call i32 @Vec_PtrSize(ptr noundef %44)
  %46 = icmp slt i32 %41, %45
  br i1 %46, label %47, label %53

47:                                               ; preds = %40
  %48 = load ptr, ptr %4, align 8
  %49 = getelementptr inbounds %struct.Mfs_Man_t_, ptr %48, i32 0, i32 7
  %50 = load ptr, ptr %49, align 8
  %51 = load i32, ptr %10, align 4
  %52 = call ptr @Vec_PtrEntry(ptr noundef %50, i32 noundef %51)
  store ptr %52, ptr %9, align 8
  br label %53

53:                                               ; preds = %47, %40
  %54 = phi i1 [ false, %40 ], [ true, %47 ]
  br i1 %54, label %55, label %72

55:                                               ; preds = %53
  %56 = load ptr, ptr %9, align 8
  %57 = load ptr, ptr %6, align 8
  call void @Abc_MfsConvertHopToAig(ptr noundef %56, ptr noundef %57)
  %58 = load ptr, ptr %9, align 8
  %59 = load ptr, ptr %5, align 8
  %60 = icmp eq ptr %58, %59
  br i1 %60, label %61, label %68

61:                                               ; preds = %55
  %62 = load ptr, ptr %9, align 8
  %63 = getelementptr inbounds %struct.Abc_Obj_t_, ptr %62, i32 0, i32 1
  %64 = load ptr, ptr %63, align 8
  %65 = call ptr @Abc_ObjNot(ptr noundef %64)
  %66 = load ptr, ptr %9, align 8
  %67 = getelementptr inbounds %struct.Abc_Obj_t_, ptr %66, i32 0, i32 1
  store ptr %65, ptr %67, align 8
  br label %68

68:                                               ; preds = %61, %55
  br label %69

69:                                               ; preds = %68
  %70 = load i32, ptr %10, align 4
  %71 = add nsw i32 %70, 1
  store i32 %71, ptr %10, align 4
  br label %40, !llvm.loop !9

72:                                               ; preds = %53
  %73 = load ptr, ptr %6, align 8
  %74 = call ptr @Aig_ManConst0(ptr noundef %73)
  store ptr %74, ptr %7, align 8
  store i32 0, ptr %10, align 4
  br label %75

75:                                               ; preds = %103, %72
  %76 = load i32, ptr %10, align 4
  %77 = load ptr, ptr %4, align 8
  %78 = getelementptr inbounds %struct.Mfs_Man_t_, ptr %77, i32 0, i32 5
  %79 = load ptr, ptr %78, align 8
  %80 = call i32 @Vec_PtrSize(ptr noundef %79)
  %81 = icmp slt i32 %76, %80
  br i1 %81, label %82, label %88

82:                                               ; preds = %75
  %83 = load ptr, ptr %4, align 8
  %84 = getelementptr inbounds %struct.Mfs_Man_t_, ptr %83, i32 0, i32 5
  %85 = load ptr, ptr %84, align 8
  %86 = load i32, ptr %10, align 4
  %87 = call ptr @Vec_PtrEntry(ptr noundef %85, i32 noundef %86)
  store ptr %87, ptr %9, align 8
  br label %88

88:                                               ; preds = %82, %75
  %89 = phi i1 [ false, %75 ], [ true, %82 ]
  br i1 %89, label %90, label %106

90:                                               ; preds = %88
  %91 = load ptr, ptr %6, align 8
  %92 = load ptr, ptr %9, align 8
  %93 = getelementptr inbounds %struct.Abc_Obj_t_, ptr %92, i32 0, i32 7
  %94 = load ptr, ptr %93, align 8
  %95 = load ptr, ptr %9, align 8
  %96 = getelementptr inbounds %struct.Abc_Obj_t_, ptr %95, i32 0, i32 1
  %97 = load ptr, ptr %96, align 8
  %98 = call ptr @Aig_Exor(ptr noundef %91, ptr noundef %94, ptr noundef %97)
  store ptr %98, ptr %8, align 8
  %99 = load ptr, ptr %6, align 8
  %100 = load ptr, ptr %7, align 8
  %101 = load ptr, ptr %8, align 8
  %102 = call ptr @Aig_Or(ptr noundef %99, ptr noundef %100, ptr noundef %101)
  store ptr %102, ptr %7, align 8
  br label %103

103:                                              ; preds = %90
  %104 = load i32, ptr %10, align 4
  %105 = add nsw i32 %104, 1
  store i32 %105, ptr %10, align 4
  br label %75, !llvm.loop !10

106:                                              ; preds = %88
  %107 = load ptr, ptr %7, align 8
  ret ptr %107
}