; Function Attrs: nounwind uwtable
define ptr @Abc_NtkConstructAig_rec(ptr noundef readonly captures(none) %0, ptr noundef readonly %1, ptr noundef %2) local_unnamed_addr #0 {
  %4 = getelementptr inbounds nuw i8, ptr %0, i64 48
  %5 = load ptr, ptr %4, align 8
  %6 = getelementptr i8, ptr %5, i64 4
  %.val4244 = load i32, ptr %6, align 4
  %7 = icmp sgt i32 %.val4244, 0
  br i1 %7, label %.lr.ph, label %.critedge

.lr.ph:                                           ; preds = %3, %.lr.ph
  %indvars.iv = phi i64 [ %indvars.iv.next, %.lr.ph ], [ 0, %3 ]
  %8 = phi ptr [ %15, %.lr.ph ], [ %5, %3 ]
  %9 = getelementptr i8, ptr %8, i64 8
  %.val39 = load ptr, ptr %9, align 8
  %10 = getelementptr inbounds nuw ptr, ptr %.val39, i64 %indvars.iv
  %11 = load ptr, ptr %10, align 8
  %12 = tail call ptr @Aig_ObjCreateCi(ptr noundef %2) #3
  %13 = getelementptr inbounds nuw i8, ptr %11, i64 8
  store ptr %12, ptr %13, align 8
  %14 = getelementptr inbounds nuw i8, ptr %11, i64 64
  store ptr %12, ptr %14, align 8
  %indvars.iv.next = add nuw nsw i64 %indvars.iv, 1
  %15 = load ptr, ptr %4, align 8
  %16 = getelementptr i8, ptr %15, i64 4
  %.val42 = load i32, ptr %16, align 4
  %17 = sext i32 %.val42 to i64
  %18 = icmp slt i64 %indvars.iv.next, %17
  br i1 %18, label %.lr.ph, label %.critedge, !llvm.loop !8

.critedge:                                        ; preds = %.lr.ph, %3
  %19 = load ptr, ptr %1, align 8
  %20 = getelementptr inbounds nuw i8, ptr %19, i64 232
  %21 = load ptr, ptr %20, align 8
  %.not.i = icmp eq ptr %21, null
  br i1 %.not.i, label %22, label %Abc_NtkIncrementTravId.exit

22:                                               ; preds = %.critedge
  %23 = getelementptr inbounds nuw i8, ptr %19, i64 224
  %24 = getelementptr i8, ptr %19, i64 32
  %.val.i = load ptr, ptr %24, align 8
  %25 = getelementptr i8, ptr %.val.i, i64 4
  %.val.val.i = load i32, ptr %25, align 4
  %26 = add nsw i32 %.val.val.i, 500
  %27 = load i32, ptr %23, align 8
  %.not.i.i.i = icmp slt i32 %27, %26
  br i1 %.not.i.i.i, label %28, label %Vec_IntGrow.exit.i.i

28:                                               ; preds = %22
  %29 = sext i32 %26 to i64
  %30 = shl nsw i64 %29, 2
  %31 = tail call noalias ptr @malloc(i64 noundef %30) #4
  store ptr %31, ptr %20, align 8
  store i32 %26, ptr %23, align 8
  br label %Vec_IntGrow.exit.i.i

Vec_IntGrow.exit.i.i:                             ; preds = %28, %22
  %32 = icmp sgt i32 %.val.val.i, -500
  br i1 %32, label %.lr.ph.i.i, label %Vec_IntFill.exit.i

.lr.ph.i.i:                                       ; preds = %Vec_IntGrow.exit.i.i
  %wide.trip.count.i.i = zext nneg i32 %26 to i64
  br label %33

33:                                               ; preds = %33, %.lr.ph.i.i
  %indvars.iv.i.i = phi i64 [ 0, %.lr.ph.i.i ], [ %indvars.iv.next.i.i, %33 ]
  %34 = load ptr, ptr %20, align 8
  %35 = getelementptr inbounds nuw i32, ptr %34, i64 %indvars.iv.i.i
  store i32 0, ptr %35, align 4
  %indvars.iv.next.i.i = add nuw nsw i64 %indvars.iv.i.i, 1
  %exitcond.not.i.i = icmp eq i64 %indvars.iv.next.i.i, %wide.trip.count.i.i
  br i1 %exitcond.not.i.i, label %Vec_IntFill.exit.i, label %33, !llvm.loop !9

Vec_IntFill.exit.i:                               ; preds = %33, %Vec_IntGrow.exit.i.i
  %36 = getelementptr inbounds nuw i8, ptr %19, i64 228
  store i32 %26, ptr %36, align 4
  br label %Abc_NtkIncrementTravId.exit

Abc_NtkIncrementTravId.exit:                      ; preds = %.critedge, %Vec_IntFill.exit.i
  %37 = getelementptr inbounds nuw i8, ptr %19, i64 216
  %38 = load i32, ptr %37, align 8
  %39 = add nsw i32 %38, 1
  store i32 %39, ptr %37, align 8
  %40 = getelementptr inbounds nuw i8, ptr %0, i64 56
  %41 = load ptr, ptr %40, align 8
  %42 = getelementptr i8, ptr %41, i64 4
  %.val4146 = load i32, ptr %42, align 4
  %43 = icmp sgt i32 %.val4146, 0
  br i1 %43, label %.lr.ph48, label %.critedge2

.lr.ph48:                                         ; preds = %Abc_NtkIncrementTravId.exit, %55
  %indvars.iv54 = phi i64 [ %indvars.iv.next55, %55 ], [ 0, %Abc_NtkIncrementTravId.exit ]
  %44 = phi ptr [ %56, %55 ], [ %41, %Abc_NtkIncrementTravId.exit ]
  %45 = getelementptr i8, ptr %44, i64 8
  %.val38 = load ptr, ptr %45, align 8
  %46 = getelementptr inbounds nuw ptr, ptr %.val38, i64 %indvars.iv54
  %47 = load ptr, ptr %46, align 8
  tail call void @Abc_MfsConvertHopToAig(ptr noundef %47, ptr noundef %2)
  %48 = icmp eq ptr %47, %1
  br i1 %48, label %49, label %55

49:                                               ; preds = %.lr.ph48
  %50 = getelementptr inbounds nuw i8, ptr %47, i64 8
  %51 = load ptr, ptr %50, align 8
  %52 = ptrtoint ptr %51 to i64
  %53 = xor i64 %52, 1
  %54 = inttoptr i64 %53 to ptr
  store ptr %54, ptr %50, align 8
  br label %55

55:                                               ; preds = %.lr.ph48, %49
  %indvars.iv.next55 = add nuw nsw i64 %indvars.iv54, 1
  %56 = load ptr, ptr %40, align 8
  %57 = getelementptr i8, ptr %56, i64 4
  %.val41 = load i32, ptr %57, align 4
  %58 = sext i32 %.val41 to i64
  %59 = icmp slt i64 %indvars.iv.next55, %58
  br i1 %59, label %.lr.ph48, label %.critedge2, !llvm.loop !10

.critedge2:                                       ; preds = %55, %Abc_NtkIncrementTravId.exit
  %60 = getelementptr i8, ptr %2, i64 48
  %.val43 = load ptr, ptr %60, align 8
  %61 = ptrtoint ptr %.val43 to i64
  %62 = xor i64 %61, 1
  %63 = inttoptr i64 %62 to ptr
  %64 = getelementptr inbounds nuw i8, ptr %0, i64 40
  %65 = load ptr, ptr %64, align 8
  %66 = getelementptr i8, ptr %65, i64 4
  %.val4049 = load i32, ptr %66, align 4
  %67 = icmp sgt i32 %.val4049, 0
  br i1 %67, label %.lr.ph52, label %.critedge4

.lr.ph52:                                         ; preds = %.critedge2, %.lr.ph52
  %indvars.iv57 = phi i64 [ %indvars.iv.next58, %.lr.ph52 ], [ 0, %.critedge2 ]
  %68 = phi ptr [ %78, %.lr.ph52 ], [ %65, %.critedge2 ]
  %.03650 = phi ptr [ %77, %.lr.ph52 ], [ %63, %.critedge2 ]
  %69 = getelementptr i8, ptr %68, i64 8
  %.val = load ptr, ptr %69, align 8
  %70 = getelementptr inbounds nuw ptr, ptr %.val, i64 %indvars.iv57
  %71 = load ptr, ptr %70, align 8
  %72 = getelementptr inbounds nuw i8, ptr %71, i64 64
  %73 = load ptr, ptr %72, align 8
  %74 = getelementptr inbounds nuw i8, ptr %71, i64 8
  %75 = load ptr, ptr %74, align 8
  %76 = tail call ptr @Aig_Exor(ptr noundef %2, ptr noundef %73, ptr noundef %75) #3
  %77 = tail call ptr @Aig_Or(ptr noundef %2, ptr noundef %.03650, ptr noundef %76) #3
  %indvars.iv.next58 = add nuw nsw i64 %indvars.iv57, 1
  %78 = load ptr, ptr %64, align 8
  %79 = getelementptr i8, ptr %78, i64 4
  %.val40 = load i32, ptr %79, align 4
  %80 = sext i32 %.val40 to i64
  %81 = icmp slt i64 %indvars.iv.next58, %80
  br i1 %81, label %.lr.ph52, label %.critedge4, !llvm.loop !11

.critedge4:                                       ; preds = %.lr.ph52, %.critedge2
  %.036.lcssa = phi ptr [ %63, %.critedge2 ], [ %77, %.lr.ph52 ]
  ret ptr %.036.lcssa
}